target datalayout = "e-m:e-p270:32:32-p271:32:32-p272:64:64-i64:64-i128:128-f80:128-n8:16:32:64-S128"
target triple = "x86_64-pc-linux-gnu"

%"class.llvm::StringRef" = type { ptr, i64 }
%"class.clang::installapi::DylibVerifier" = type { %"class.llvm::MachO::RecordVisitor", %"class.llvm::SmallVector", %"class.llvm::SmallVector.0", %"class.std::map", i32, i8, i8, %"class.llvm::StringRef", %"class.std::unique_ptr", %"class.llvm::StringMap", %"struct.clang::installapi::DylibVerifier::VerifierContext", ptr, %"class.llvm::SmallVector.10" }
%"class.llvm::MachO::RecordVisitor" = type { ptr }
%"class.llvm::SmallVector" = type { %"class.llvm::SmallVectorImpl", %"struct.llvm::SmallVectorStorage" }
%"class.llvm::SmallVectorImpl" = type { %"class.llvm::SmallVectorTemplateBase" }
%"class.llvm::SmallVectorTemplateBase" = type { %"class.llvm::SmallVectorTemplateCommon" }
%"class.llvm::SmallVectorTemplateCommon" = type { %"class.llvm::SmallVectorBase" }
%"class.llvm::SmallVectorBase" = type { ptr, i32, i32 }
%"struct.llvm::SmallVectorStorage" = type { [64 x i8] }
%"class.llvm::SmallVector.0" = type { %"class.llvm::SmallVectorImpl.1", %"struct.llvm::SmallVectorStorage.4" }
%"class.llvm::SmallVectorImpl.1" = type { %"class.llvm::SmallVectorTemplateBase.2" }
%"class.llvm::SmallVectorTemplateBase.2" = type { %"class.llvm::SmallVectorTemplateCommon.3" }
%"class.llvm::SmallVectorTemplateCommon.3" = type { %"class.llvm::SmallVectorBase" }
%"struct.llvm::SmallVectorStorage.4" = type { [3712 x i8] }
%"class.std::map" = type { %"class.std::_Rb_tree" }
%"class.std::_Rb_tree" = type { %"struct.std::_Rb_tree<std::pair<std::__cxx11::basic_string<char>, llvm::MachO::EncodeKind>, std::pair<const std::pair<std::__cxx11::basic_string<char>, llvm::MachO::EncodeKind>, std::pair<std::__cxx11::basic_string<char>, llvm::MachO::EncodeKind>>, std::_Select1st<std::pair<const std::pair<std::__cxx11::basic_string<char>, llvm::MachO::EncodeKind>, std::pair<std::__cxx11::basic_string<char>, llvm::MachO::EncodeKind>>>, std::less<std::pair<std::__cxx11::basic_string<char>, llvm::MachO::EncodeKind>>>::_Rb_tree_impl" }
%"struct.std::_Rb_tree<std::pair<std::__cxx11::basic_string<char>, llvm::MachO::EncodeKind>, std::pair<const std::pair<std::__cxx11::basic_string<char>, llvm::MachO::EncodeKind>, std::pair<std::__cxx11::basic_string<char>, llvm::MachO::EncodeKind>>, std::_Select1st<std::pair<const std::pair<std::__cxx11::basic_string<char>, llvm::MachO::EncodeKind>, std::pair<std::__cxx11::basic_string<char>, llvm::MachO::EncodeKind>>>, std::less<std::pair<std::__cxx11::basic_string<char>, llvm::MachO::EncodeKind>>>::_Rb_tree_impl" = type { [8 x i8], %"struct.std::_Rb_tree_header" }
%"struct.std::_Rb_tree_header" = type { %"struct.std::_Rb_tree_node_base", i64 }
%"struct.std::_Rb_tree_node_base" = type { i32, ptr, ptr, ptr }
%"class.std::unique_ptr" = type { %"struct.std::__uniq_ptr_data" }
%"struct.std::__uniq_ptr_data" = type { %"class.std::__uniq_ptr_impl" }
%"class.std::__uniq_ptr_impl" = type { %"class.std::tuple" }
%"class.std::tuple" = type { %"struct.std::_Tuple_impl" }
%"struct.std::_Tuple_impl" = type { %"struct.std::_Head_base.9" }
%"struct.std::_Head_base.9" = type { ptr }
%"class.llvm::StringMap" = type { %"class.llvm::StringMapImpl" }
%"class.llvm::StringMapImpl" = type { ptr, i32, i32, i32, i32 }
%"struct.clang::installapi::DylibVerifier::VerifierContext" = type { %"class.llvm::MachO::Target", ptr, i32, i8, i8, ptr }
%"class.llvm::MachO::Target" = type { i8, i32, %"class.llvm::VersionTuple" }
%"class.llvm::VersionTuple" = type { i64, i64 }
%"class.llvm::SmallVector.10" = type { %"class.llvm::SmallVectorImpl.11", %"struct.llvm::SmallVectorStorage.14" }
%"class.llvm::SmallVectorImpl.11" = type { %"class.llvm::SmallVectorTemplateBase.12" }
%"class.llvm::SmallVectorTemplateBase.12" = type { %"class.llvm::SmallVectorTemplateCommon.13" }
%"class.llvm::SmallVectorTemplateCommon.13" = type { %"class.llvm::SmallVectorBase" }
%"struct.llvm::SmallVectorStorage.14" = type { [96 x i8] }

; Function Attrs: mustprogress nounwind uwtable
define internal noundef i32 @_ZN5clang10installapiL12updateResultENS0_13DylibVerifier6ResultES2_(i32 noundef %0, i32 noundef %1) #0 {
  %3 = alloca i32, align 4
  %4 = alloca i32, align 4
  %5 = alloca i32, align 4
  store i32 %0, ptr %4, align 4
  store i32 %1, ptr %5, align 4
  %6 = load i32, ptr %4, align 4
  %7 = load i32, ptr %5, align 4
  %8 = icmp eq i32 %6, %7
  br i1 %8, label %9, label %11

9:                                                ; preds = %2
  %10 = load i32, ptr %4, align 4
  store i32 %10, ptr %3, align 4
  br label %29

11:                                               ; preds = %2
  %12 = load i32, ptr %4, align 4
  %13 = icmp eq i32 %12, 3
  br i1 %13, label %17, label %14

14:                                               ; preds = %11
  %15 = load i32, ptr %4, align 4
  %16 = icmp eq i32 %15, 0
  br i1 %16, label %17, label %19

17:                                               ; preds = %14, %11
  %18 = load i32, ptr %4, align 4
  store i32 %18, ptr %3, align 4
  br label %29

19:                                               ; preds = %14
  %20 = load i32, ptr %4, align 4
  %21 = icmp eq i32 %20, 2
  br i1 %21, label %22, label %27

22:                                               ; preds = %19
  %23 = load i32, ptr %5, align 4
  %24 = icmp eq i32 %23, 1
  br i1 %24, label %25, label %27

25:                                               ; preds = %22
  %26 = load i32, ptr %4, align 4
  store i32 %26, ptr %3, align 4
  br label %29

27:                                               ; preds = %22, %19
  %28 = load i32, ptr %5, align 4
  store i32 %28, ptr %3, align 4
  br label %29

29:                                               ; preds = %27, %25, %17, %9
  %30 = load i32, ptr %3, align 4
  ret i32 %30
}

; Function Attrs: mustprogress nounwind uwtable
define dso_local void @_ZN5clang10installapi13DylibVerifier11updateStateENS1_6ResultE(ptr noundef nonnull align 8 dereferenceable(4088) %0, i32 noundef %1) #0 align 2 {
  %3 = alloca ptr, align 8
  %4 = alloca i32, align 4
  store ptr %0, ptr %3, align 8
  store i32 %1, ptr %4, align 4
  %5 = load ptr, ptr %3, align 8
  %6 = getelementptr inbounds nuw %"class.clang::installapi::DylibVerifier", ptr %5, i32 0, i32 10
  %7 = getelementptr inbounds nuw %"struct.clang::installapi::DylibVerifier::VerifierContext", ptr %6, i32 0, i32 2
  %8 = load i32, ptr %7, align 8
  %9 = load i32, ptr %4, align 4
  %10 = call noundef i32 @_ZN5clang10installapiL12updateResultENS0_13DylibVerifier6ResultES2_(i32 noundef %8, i32 noundef %9)
  %11 = getelementptr inbounds nuw %"class.clang::installapi::DylibVerifier", ptr %5, i32 0, i32 10
  %12 = getelementptr inbounds nuw %"struct.clang::installapi::DylibVerifier::VerifierContext", ptr %11, i32 0, i32 2
  store i32 %10, ptr %12, align 8
  ret void
}