; Function Attrs: mustprogress nofree norecurse nosync nounwind willreturn memory(argmem: readwrite) uwtable
define dso_local void @_ZN5clang10installapi13DylibVerifier11updateStateENS1_6ResultE(ptr noundef nonnull align 8 captures(none) dereferenceable(4088) %0, i32 noundef %1) local_unnamed_addr #4 align 2 {
  %3 = getelementptr inbounds nuw i8, ptr %0, i64 3952
  %4 = load i32, ptr %3, align 8
  %5 = icmp eq i32 %4, %1
  br i1 %5, label %_ZN5clang10installapiL12updateResultENS0_13DylibVerifier6ResultES2_.exit, label %6

6:                                                ; preds = %2
  switch i32 %4, label %7 [
    i32 3, label %_ZN5clang10installapiL12updateResultENS0_13DylibVerifier6ResultES2_.exit
    i32 0, label %_ZN5clang10installapiL12updateResultENS0_13DylibVerifier6ResultES2_.exit
  ]

7:                                                ; preds = %6
  %8 = icmp eq i32 %4, 2
  %9 = icmp eq i32 %1, 1
  %or.cond3.i = and i1 %9, %8
  %..i = select i1 %or.cond3.i, i32 2, i32 %1
  br label %_ZN5clang10installapiL12updateResultENS0_13DylibVerifier6ResultES2_.exit

_ZN5clang10installapiL12updateResultENS0_13DylibVerifier6ResultES2_.exit: ; preds = %2, %6, %6, %7
  %.0.i = phi i32 [ %1, %2 ], [ %4, %6 ], [ %4, %6 ], [ %..i, %7 ]
  store i32 %.0.i, ptr %3, align 8
  ret void
}